target datalayout = "e-m:e-p270:32:32-p271:32:32-p272:64:64-i64:64-i128:128-f80:128-n8:16:32:64-S128"
target triple = "x86_64-pc-linux-gnu"

; Function Attrs: mustprogress uwtable
define noundef i32 @_ZNK9MlsPlugin8getClassEPK7QAction(ptr noundef nonnull align 8 dereferenceable(80) %0, ptr noundef %1) unnamed_addr #5 align 2 {
  %3 = alloca i32, align 4
  %4 = alloca ptr, align 8
  %5 = alloca ptr, align 8
  %6 = alloca i32, align 4
  store ptr %0, ptr %4, align 8
  store ptr %1, ptr %5, align 8
  %7 = load ptr, ptr %4, align 8
  %8 = getelementptr inbounds i8, ptr %7, i64 16
  %9 = load ptr, ptr %5, align 8
  %10 = load ptr, ptr %8, align 8
  %11 = getelementptr inbounds ptr, ptr %10, i64 18
  %12 = load ptr, ptr %11, align 8
  %13 = call noundef i32 %12(ptr noundef nonnull align 8 dereferenceable(64) %8, ptr noundef %9)
  store i32 %13, ptr %6, align 4
  %14 = load i32, ptr %6, align 4
  switch i32 %14, label %20 [
    i32 1, label %15
    i32 0, label %15
    i32 3, label %16
    i32 2, label %16
    i32 5, label %17
    i32 4, label %17
    i32 6, label %18
    i32 7, label %19
  ]

15:                                               ; preds = %2, %2
  store i32 32896, ptr %3, align 4
  br label %21

16:                                               ; preds = %2, %2
  store i32 32772, ptr %3, align 4
  br label %21

17:                                               ; preds = %2, %2
  store i32 32784, ptr %3, align 4
  br label %21

18:                                               ; preds = %2
  store i32 32768, ptr %3, align 4
  br label %21

19:                                               ; preds = %2
  store i32 1, ptr %3, align 4
  br label %21

20:                                               ; preds = %2
  store i32 0, ptr %3, align 4
  br label %21

21:                                               ; preds = %20, %19, %18, %17, %16, %15
  %22 = load i32, ptr %3, align 4
  ret i32 %22
}